target datalayout = "e-m:e-p270:32:32-p271:32:32-p272:64:64-i64:64-i128:128-f80:128-n8:16:32:64-S128"
target triple = "x86_64-pc-linux-gnu"

%union.pthread_mutex_t = type { %struct.__pthread_mutex_s }
%struct.__pthread_mutex_s = type { i32, i32, i32, i32, i32, i16, i16, %struct.__pthread_internal_list }
%struct.__pthread_internal_list = type { ptr, ptr }
%struct.itemstats_t = type { i64, i64, i64, i64, i64, i64, i64, i64, i64, i64, i64, i64, i64, i64, i64, i64, i64, i64, i64, i64, i32 }
%struct.settings = type { i64, i32, i32, i32, ptr, i32, i32, i32, ptr, ptr, i32, double, i32, i32, i32, i8, i32, i32, i8, i32, i32, i32, i32, i32, i32, i8, i8, i8, i8, i8, i8, i8, i32, i32, double, double, i32, i32, i8, i32, i8, i8, ptr, i32, i32, i32, i32, double, double, i32, i8, i32, i32, i32, i32, i32, i8, i8, i8, ptr, i32, i32, i32, i32, i32, i32, i32, i32, i32, i32, double, i8, i32, i32, ptr, i32 }
%struct._lru_bump_buf = type { ptr, ptr, %union.pthread_mutex_t, ptr, i64 }

@lru_locks = external global [256 x %union.pthread_mutex_t], align 16
@itemstats = internal global [256 x %struct.itemstats_t] zeroinitializer, align 16
@settings = external global %struct.settings, align 8
@lru_type_map = internal global [4 x i32] [i32 0, i32 64, i32 128, i32 192], align 16
@.str.2 = private unnamed_addr constant [18 x i8] c"expired_unfetched\00", align 1
@.str.3 = private unnamed_addr constant [5 x i8] c"%llu\00", align 1
@.str.4 = private unnamed_addr constant [18 x i8] c"evicted_unfetched\00", align 1
@.str.5 = private unnamed_addr constant [15 x i8] c"evicted_active\00", align 1
@.str.6 = private unnamed_addr constant [10 x i8] c"evictions\00", align 1
@.str.7 = private unnamed_addr constant [10 x i8] c"reclaimed\00", align 1
@.str.8 = private unnamed_addr constant [18 x i8] c"crawler_reclaimed\00", align 1
@.str.9 = private unnamed_addr constant [22 x i8] c"crawler_items_checked\00", align 1
@.str.10 = private unnamed_addr constant [18 x i8] c"lrutail_reflocked\00", align 1
@.str.11 = private unnamed_addr constant [14 x i8] c"moves_to_cold\00", align 1
@.str.12 = private unnamed_addr constant [14 x i8] c"moves_to_warm\00", align 1
@.str.13 = private unnamed_addr constant [17 x i8] c"moves_within_lru\00", align 1
@.str.14 = private unnamed_addr constant [16 x i8] c"direct_reclaims\00", align 1
@.str.15 = private unnamed_addr constant [18 x i8] c"lru_bumps_dropped\00", align 1
@bump_buf_lock = internal global %union.pthread_mutex_t zeroinitializer, align 8
@bump_buf_head = internal global ptr null, align 8

; Function Attrs: nounwind uwtable
define internal i64 @lru_total_bumps_dropped() #0 {
  %1 = alloca i64, align 8
  %2 = alloca ptr, align 8
  call void @llvm.lifetime.start.p0(i64 8, ptr %1) #9
  store i64 0, ptr %1, align 8, !tbaa !10
  call void @llvm.lifetime.start.p0(i64 8, ptr %2) #9
  %3 = call i32 @pthread_mutex_lock(ptr noundef @bump_buf_lock) #9
  %4 = load ptr, ptr @bump_buf_head, align 8, !tbaa !92
  store ptr %4, ptr %2, align 8, !tbaa !92
  br label %5

5:                                                ; preds = %20, %0
  %6 = load ptr, ptr %2, align 8, !tbaa !92
  %7 = icmp ne ptr %6, null
  br i1 %7, label %8, label %24

8:                                                ; preds = %5
  %9 = load ptr, ptr %2, align 8, !tbaa !92
  %10 = getelementptr inbounds nuw %struct._lru_bump_buf, ptr %9, i32 0, i32 2
  %11 = call i32 @pthread_mutex_lock(ptr noundef %10) #9
  %12 = load ptr, ptr %2, align 8, !tbaa !92
  %13 = getelementptr inbounds nuw %struct._lru_bump_buf, ptr %12, i32 0, i32 4
  %14 = load i64, ptr %13, align 8, !tbaa !94
  %15 = load i64, ptr %1, align 8, !tbaa !10
  %16 = add i64 %15, %14
  store i64 %16, ptr %1, align 8, !tbaa !10
  %17 = load ptr, ptr %2, align 8, !tbaa !92
  %18 = getelementptr inbounds nuw %struct._lru_bump_buf, ptr %17, i32 0, i32 2
  %19 = call i32 @pthread_mutex_unlock(ptr noundef %18) #9
  br label %20

20:                                               ; preds = %8
  %21 = load ptr, ptr %2, align 8, !tbaa !92
  %22 = getelementptr inbounds nuw %struct._lru_bump_buf, ptr %21, i32 0, i32 1
  %23 = load ptr, ptr %22, align 8, !tbaa !96
  store ptr %23, ptr %2, align 8, !tbaa !92
  br label %5, !llvm.loop !97

24:                                               ; preds = %5
  %25 = call i32 @pthread_mutex_unlock(ptr noundef @bump_buf_lock) #9
  %26 = load i64, ptr %1, align 8, !tbaa !10
  call void @llvm.lifetime.end.p0(i64 8, ptr %2) #9
  call void @llvm.lifetime.end.p0(i64 8, ptr %1) #9
  ret i64 %26
}

; Function Attrs: nounwind uwtable
define dso_local void @item_stats_totals(ptr noundef %0, ptr noundef %1) #0 {
  %3 = alloca ptr, align 8
  %4 = alloca ptr, align 8
  %5 = alloca %struct.itemstats_t, align 8
  %6 = alloca i32, align 4
  %7 = alloca i32, align 4
  %8 = alloca i32, align 4
  store ptr %0, ptr %3, align 8, !tbaa !33
  store ptr %1, ptr %4, align 8, !tbaa !33
  call void @llvm.lifetime.start.p0(i64 168, ptr %5) #9
  call void @llvm.memset.p0.i64(ptr align 8 %5, i8 0, i64 168, i1 false)
  call void @llvm.lifetime.start.p0(i64 4, ptr %6) #9
  store i32 0, ptr %6, align 4, !tbaa !4
  br label %9

9:                                                ; preds = %131, %2
  %10 = load i32, ptr %6, align 4, !tbaa !4
  %11 = icmp slt i32 %10, 64
  br i1 %11, label %12, label %134

12:                                               ; preds = %9
  call void @llvm.lifetime.start.p0(i64 4, ptr %7) #9
  call void @llvm.lifetime.start.p0(i64 4, ptr %8) #9
  store i32 0, ptr %7, align 4, !tbaa !4
  br label %13

13:                                               ; preds = %127, %12
  %14 = load i32, ptr %7, align 4, !tbaa !4
  %15 = icmp slt i32 %14, 4
  br i1 %15, label %16, label %130

16:                                               ; preds = %13
  %17 = load i32, ptr %6, align 4, !tbaa !4
  %18 = load i32, ptr %7, align 4, !tbaa !4
  %19 = sext i32 %18 to i64
  %20 = getelementptr inbounds [4 x i32], ptr @lru_type_map, i64 0, i64 %19
  %21 = load i32, ptr %20, align 4, !tbaa !4
  %22 = or i32 %17, %21
  store i32 %22, ptr %8, align 4, !tbaa !4
  %23 = load i32, ptr %8, align 4, !tbaa !4
  %24 = sext i32 %23 to i64
  %25 = getelementptr inbounds [256 x %union.pthread_mutex_t], ptr @lru_locks, i64 0, i64 %24
  %26 = call i32 @pthread_mutex_lock(ptr noundef %25) #9
  %27 = load i32, ptr %8, align 4, !tbaa !4
  %28 = sext i32 %27 to i64
  %29 = getelementptr inbounds [256 x %struct.itemstats_t], ptr @itemstats, i64 0, i64 %28
  %30 = getelementptr inbounds nuw %struct.itemstats_t, ptr %29, i32 0, i32 0
  %31 = load i64, ptr %30, align 8, !tbaa !46
  %32 = getelementptr inbounds nuw %struct.itemstats_t, ptr %5, i32 0, i32 0
  %33 = load i64, ptr %32, align 8, !tbaa !46
  %34 = add i64 %33, %31
  store i64 %34, ptr %32, align 8, !tbaa !46
  %35 = load i32, ptr %8, align 4, !tbaa !4
  %36 = sext i32 %35 to i64
  %37 = getelementptr inbounds [256 x %struct.itemstats_t], ptr @itemstats, i64 0, i64 %36
  %38 = getelementptr inbounds nuw %struct.itemstats_t, ptr %37, i32 0, i32 2
  %39 = load i64, ptr %38, align 8, !tbaa !39
  %40 = getelementptr inbounds nuw %struct.itemstats_t, ptr %5, i32 0, i32 2
  %41 = load i64, ptr %40, align 8, !tbaa !39
  %42 = add i64 %41, %39
  store i64 %42, ptr %40, align 8, !tbaa !39
  %43 = load i32, ptr %8, align 4, !tbaa !4
  %44 = sext i32 %43 to i64
  %45 = getelementptr inbounds [256 x %struct.itemstats_t], ptr @itemstats, i64 0, i64 %44
  %46 = getelementptr inbounds nuw %struct.itemstats_t, ptr %45, i32 0, i32 5
  %47 = load i64, ptr %46, align 8, !tbaa !14
  %48 = getelementptr inbounds nuw %struct.itemstats_t, ptr %5, i32 0, i32 5
  %49 = load i64, ptr %48, align 8, !tbaa !14
  %50 = add i64 %49, %47
  store i64 %50, ptr %48, align 8, !tbaa !14
  %51 = load i32, ptr %8, align 4, !tbaa !4
  %52 = sext i32 %51 to i64
  %53 = getelementptr inbounds [256 x %struct.itemstats_t], ptr @itemstats, i64 0, i64 %52
  %54 = getelementptr inbounds nuw %struct.itemstats_t, ptr %53, i32 0, i32 6
  %55 = load i64, ptr %54, align 8, !tbaa !49
  %56 = getelementptr inbounds nuw %struct.itemstats_t, ptr %5, i32 0, i32 6
  %57 = load i64, ptr %56, align 8, !tbaa !49
  %58 = add i64 %57, %55
  store i64 %58, ptr %56, align 8, !tbaa !49
  %59 = load i32, ptr %8, align 4, !tbaa !4
  %60 = sext i32 %59 to i64
  %61 = getelementptr inbounds [256 x %struct.itemstats_t], ptr @itemstats, i64 0, i64 %60
  %62 = getelementptr inbounds nuw %struct.itemstats_t, ptr %61, i32 0, i32 7
  %63 = load i64, ptr %62, align 8, !tbaa !50
  %64 = getelementptr inbounds nuw %struct.itemstats_t, ptr %5, i32 0, i32 7
  %65 = load i64, ptr %64, align 8, !tbaa !50
  %66 = add i64 %65, %63
  store i64 %66, ptr %64, align 8, !tbaa !50
  %67 = load i32, ptr %8, align 4, !tbaa !4
  %68 = sext i32 %67 to i64
  %69 = getelementptr inbounds [256 x %struct.itemstats_t], ptr @itemstats, i64 0, i64 %68
  %70 = getelementptr inbounds nuw %struct.itemstats_t, ptr %69, i32 0, i32 8
  %71 = load i64, ptr %70, align 8, !tbaa !12
  %72 = getelementptr inbounds nuw %struct.itemstats_t, ptr %5, i32 0, i32 8
  %73 = load i64, ptr %72, align 8, !tbaa !12
  %74 = add i64 %73, %71
  store i64 %74, ptr %72, align 8, !tbaa !12
  %75 = load i32, ptr %8, align 4, !tbaa !4
  %76 = sext i32 %75 to i64
  %77 = getelementptr inbounds [256 x %struct.itemstats_t], ptr @itemstats, i64 0, i64 %76
  %78 = getelementptr inbounds nuw %struct.itemstats_t, ptr %77, i32 0, i32 9
  %79 = load i64, ptr %78, align 8, !tbaa !15
  %80 = getelementptr inbounds nuw %struct.itemstats_t, ptr %5, i32 0, i32 9
  %81 = load i64, ptr %80, align 8, !tbaa !15
  %82 = add i64 %81, %79
  store i64 %82, ptr %80, align 8, !tbaa !15
  %83 = load i32, ptr %8, align 4, !tbaa !4
  %84 = sext i32 %83 to i64
  %85 = getelementptr inbounds [256 x %struct.itemstats_t], ptr @itemstats, i64 0, i64 %84
  %86 = getelementptr inbounds nuw %struct.itemstats_t, ptr %85, i32 0, i32 10
  %87 = load i64, ptr %86, align 8, !tbaa !36
  %88 = getelementptr inbounds nuw %struct.itemstats_t, ptr %5, i32 0, i32 10
  %89 = load i64, ptr %88, align 8, !tbaa !36
  %90 = add i64 %89, %87
  store i64 %90, ptr %88, align 8, !tbaa !36
  %91 = load i32, ptr %8, align 4, !tbaa !4
  %92 = sext i32 %91 to i64
  %93 = getelementptr inbounds [256 x %struct.itemstats_t], ptr @itemstats, i64 0, i64 %92
  %94 = getelementptr inbounds nuw %struct.itemstats_t, ptr %93, i32 0, i32 11
  %95 = load i64, ptr %94, align 8, !tbaa !44
  %96 = getelementptr inbounds nuw %struct.itemstats_t, ptr %5, i32 0, i32 11
  %97 = load i64, ptr %96, align 8, !tbaa !44
  %98 = add i64 %97, %95
  store i64 %98, ptr %96, align 8, !tbaa !44
  %99 = load i32, ptr %8, align 4, !tbaa !4
  %100 = sext i32 %99 to i64
  %101 = getelementptr inbounds [256 x %struct.itemstats_t], ptr @itemstats, i64 0, i64 %100
  %102 = getelementptr inbounds nuw %struct.itemstats_t, ptr %101, i32 0, i32 12
  %103 = load i64, ptr %102, align 8, !tbaa !43
  %104 = getelementptr inbounds nuw %struct.itemstats_t, ptr %5, i32 0, i32 12
  %105 = load i64, ptr %104, align 8, !tbaa !43
  %106 = add i64 %105, %103
  store i64 %106, ptr %104, align 8, !tbaa !43
  %107 = load i32, ptr %8, align 4, !tbaa !4
  %108 = sext i32 %107 to i64
  %109 = getelementptr inbounds [256 x %struct.itemstats_t], ptr @itemstats, i64 0, i64 %108
  %110 = getelementptr inbounds nuw %struct.itemstats_t, ptr %109, i32 0, i32 13
  %111 = load i64, ptr %110, align 8, !tbaa !42
  %112 = getelementptr inbounds nuw %struct.itemstats_t, ptr %5, i32 0, i32 13
  %113 = load i64, ptr %112, align 8, !tbaa !42
  %114 = add i64 %113, %111
  store i64 %114, ptr %112, align 8, !tbaa !42
  %115 = load i32, ptr %8, align 4, !tbaa !4
  %116 = sext i32 %115 to i64
  %117 = getelementptr inbounds [256 x %struct.itemstats_t], ptr @itemstats, i64 0, i64 %116
  %118 = getelementptr inbounds nuw %struct.itemstats_t, ptr %117, i32 0, i32 14
  %119 = load i64, ptr %118, align 8, !tbaa !29
  %120 = getelementptr inbounds nuw %struct.itemstats_t, ptr %5, i32 0, i32 14
  %121 = load i64, ptr %120, align 8, !tbaa !29
  %122 = add i64 %121, %119
  store i64 %122, ptr %120, align 8, !tbaa !29
  %123 = load i32, ptr %8, align 4, !tbaa !4
  %124 = sext i32 %123 to i64
  %125 = getelementptr inbounds [256 x %union.pthread_mutex_t], ptr @lru_locks, i64 0, i64 %124
  %126 = call i32 @pthread_mutex_unlock(ptr noundef %125) #9
  br label %127

127:                                              ; preds = %16
  %128 = load i32, ptr %7, align 4, !tbaa !4
  %129 = add nsw i32 %128, 1
  store i32 %129, ptr %7, align 4, !tbaa !4
  br label %13, !llvm.loop !89

130:                                              ; preds = %13
  call void @llvm.lifetime.end.p0(i64 4, ptr %8) #9
  call void @llvm.lifetime.end.p0(i64 4, ptr %7) #9
  br label %131

131:                                              ; preds = %130
  %132 = load i32, ptr %6, align 4, !tbaa !4
  %133 = add nsw i32 %132, 1
  store i32 %133, ptr %6, align 4, !tbaa !4
  br label %9, !llvm.loop !90

134:                                              ; preds = %9
  %135 = load ptr, ptr %3, align 8, !tbaa !33
  %136 = load ptr, ptr %4, align 8, !tbaa !33
  %137 = getelementptr inbounds nuw %struct.itemstats_t, ptr %5, i32 0, i32 5
  %138 = load i64, ptr %137, align 8, !tbaa !14
  call void (ptr, ptr, ptr, ptr, ...) @append_stat(ptr noundef @.str.2, ptr noundef %135, ptr noundef %136, ptr noundef @.str.3, i64 noundef %138)
  %139 = load ptr, ptr %3, align 8, !tbaa !33
  %140 = load ptr, ptr %4, align 8, !tbaa !33
  %141 = getelementptr inbounds nuw %struct.itemstats_t, ptr %5, i32 0, i32 6
  %142 = load i64, ptr %141, align 8, !tbaa !49
  call void (ptr, ptr, ptr, ptr, ...) @append_stat(ptr noundef @.str.4, ptr noundef %139, ptr noundef %140, ptr noundef @.str.3, i64 noundef %142)
  %143 = load i8, ptr getelementptr inbounds nuw (%struct.settings, ptr @settings, i32 0, i32 28), align 1, !tbaa !91, !range !26, !noundef !27
  %144 = trunc i8 %143 to i1
  br i1 %144, label %145, label %150

145:                                              ; preds = %134
  %146 = load ptr, ptr %3, align 8, !tbaa !33
  %147 = load ptr, ptr %4, align 8, !tbaa !33
  %148 = getelementptr inbounds nuw %struct.itemstats_t, ptr %5, i32 0, i32 7
  %149 = load i64, ptr %148, align 8, !tbaa !50
  call void (ptr, ptr, ptr, ptr, ...) @append_stat(ptr noundef @.str.5, ptr noundef %146, ptr noundef %147, ptr noundef @.str.3, i64 noundef %149)
  br label %150

150:                                              ; preds = %145, %134
  %151 = load ptr, ptr %3, align 8, !tbaa !33
  %152 = load ptr, ptr %4, align 8, !tbaa !33
  %153 = getelementptr inbounds nuw %struct.itemstats_t, ptr %5, i32 0, i32 0
  %154 = load i64, ptr %153, align 8, !tbaa !46
  call void (ptr, ptr, ptr, ptr, ...) @append_stat(ptr noundef @.str.6, ptr noundef %151, ptr noundef %152, ptr noundef @.str.3, i64 noundef %154)
  %155 = load ptr, ptr %3, align 8, !tbaa !33
  %156 = load ptr, ptr %4, align 8, !tbaa !33
  %157 = getelementptr inbounds nuw %struct.itemstats_t, ptr %5, i32 0, i32 2
  %158 = load i64, ptr %157, align 8, !tbaa !39
  call void (ptr, ptr, ptr, ptr, ...) @append_stat(ptr noundef @.str.7, ptr noundef %155, ptr noundef %156, ptr noundef @.str.3, i64 noundef %158)
  %159 = load ptr, ptr %3, align 8, !tbaa !33
  %160 = load ptr, ptr %4, align 8, !tbaa !33
  %161 = getelementptr inbounds nuw %struct.itemstats_t, ptr %5, i32 0, i32 8
  %162 = load i64, ptr %161, align 8, !tbaa !12
  call void (ptr, ptr, ptr, ptr, ...) @append_stat(ptr noundef @.str.8, ptr noundef %159, ptr noundef %160, ptr noundef @.str.3, i64 noundef %162)
  %163 = load ptr, ptr %3, align 8, !tbaa !33
  %164 = load ptr, ptr %4, align 8, !tbaa !33
  %165 = getelementptr inbounds nuw %struct.itemstats_t, ptr %5, i32 0, i32 9
  %166 = load i64, ptr %165, align 8, !tbaa !15
  call void (ptr, ptr, ptr, ptr, ...) @append_stat(ptr noundef @.str.9, ptr noundef %163, ptr noundef %164, ptr noundef @.str.3, i64 noundef %166)
  %167 = load ptr, ptr %3, align 8, !tbaa !33
  %168 = load ptr, ptr %4, align 8, !tbaa !33
  %169 = getelementptr inbounds nuw %struct.itemstats_t, ptr %5, i32 0, i32 10
  %170 = load i64, ptr %169, align 8, !tbaa !36
  call void (ptr, ptr, ptr, ptr, ...) @append_stat(ptr noundef @.str.10, ptr noundef %167, ptr noundef %168, ptr noundef @.str.3, i64 noundef %170)
  %171 = load i8, ptr getelementptr inbounds nuw (%struct.settings, ptr @settings, i32 0, i32 28), align 1, !tbaa !91, !range !26, !noundef !27
  %172 = trunc i8 %171 to i1
  br i1 %172, label %173, label %193

173:                                              ; preds = %150
  %174 = load ptr, ptr %3, align 8, !tbaa !33
  %175 = load ptr, ptr %4, align 8, !tbaa !33
  %176 = getelementptr inbounds nuw %struct.itemstats_t, ptr %5, i32 0, i32 11
  %177 = load i64, ptr %176, align 8, !tbaa !44
  call void (ptr, ptr, ptr, ptr, ...) @append_stat(ptr noundef @.str.11, ptr noundef %174, ptr noundef %175, ptr noundef @.str.3, i64 noundef %177)
  %178 = load ptr, ptr %3, align 8, !tbaa !33
  %179 = load ptr, ptr %4, align 8, !tbaa !33
  %180 = getelementptr inbounds nuw %struct.itemstats_t, ptr %5, i32 0, i32 12
  %181 = load i64, ptr %180, align 8, !tbaa !43
  call void (ptr, ptr, ptr, ptr, ...) @append_stat(ptr noundef @.str.12, ptr noundef %178, ptr noundef %179, ptr noundef @.str.3, i64 noundef %181)
  %182 = load ptr, ptr %3, align 8, !tbaa !33
  %183 = load ptr, ptr %4, align 8, !tbaa !33
  %184 = getelementptr inbounds nuw %struct.itemstats_t, ptr %5, i32 0, i32 13
  %185 = load i64, ptr %184, align 8, !tbaa !42
  call void (ptr, ptr, ptr, ptr, ...) @append_stat(ptr noundef @.str.13, ptr noundef %182, ptr noundef %183, ptr noundef @.str.3, i64 noundef %185)
  %186 = load ptr, ptr %3, align 8, !tbaa !33
  %187 = load ptr, ptr %4, align 8, !tbaa !33
  %188 = getelementptr inbounds nuw %struct.itemstats_t, ptr %5, i32 0, i32 14
  %189 = load i64, ptr %188, align 8, !tbaa !29
  call void (ptr, ptr, ptr, ptr, ...) @append_stat(ptr noundef @.str.14, ptr noundef %186, ptr noundef %187, ptr noundef @.str.3, i64 noundef %189)
  %190 = load ptr, ptr %3, align 8, !tbaa !33
  %191 = load ptr, ptr %4, align 8, !tbaa !33
  %192 = call i64 @lru_total_bumps_dropped()
  call void (ptr, ptr, ptr, ptr, ...) @append_stat(ptr noundef @.str.15, ptr noundef %190, ptr noundef %191, ptr noundef @.str.3, i64 noundef %192)
  br label %193

193:                                              ; preds = %173, %150
  call void @llvm.lifetime.end.p0(i64 4, ptr %6) #9
  call void @llvm.lifetime.end.p0(i64 168, ptr %5) #9
  ret void
}