; Function Attrs: nounwind uwtable
define dso_local void @item_stats_totals(ptr noundef %0, ptr noundef %1) local_unnamed_addr #0 {
  br label %.preheader

.preheader:                                       ; preds = %2, %47
  %.sroa.0.097 = phi i64 [ 0, %2 ], [ %12, %47 ]
  %.07196 = phi i32 [ 0, %2 ], [ %48, %47 ]
  %.sroa.36.095 = phi i64 [ 0, %2 ], [ %45, %47 ]
  %.sroa.33.094 = phi i64 [ 0, %2 ], [ %42, %47 ]
  %.sroa.30.093 = phi i64 [ 0, %2 ], [ %39, %47 ]
  %.sroa.27.092 = phi i64 [ 0, %2 ], [ %36, %47 ]
  %.sroa.24.091 = phi i64 [ 0, %2 ], [ %33, %47 ]
  %.sroa.21.090 = phi i64 [ 0, %2 ], [ %30, %47 ]
  %.sroa.18.089 = phi i64 [ 0, %2 ], [ %27, %47 ]
  %.sroa.15.088 = phi i64 [ 0, %2 ], [ %24, %47 ]
  %.sroa.12.087 = phi i64 [ 0, %2 ], [ %21, %47 ]
  %.sroa.923.086 = phi i64 [ 0, %2 ], [ %18, %47 ]
  %.sroa.621.085 = phi i64 [ 0, %2 ], [ %15, %47 ]
  br label %3

3:                                                ; preds = %.preheader, %3
  %indvars.iv = phi i64 [ 0, %.preheader ], [ %indvars.iv.next, %3 ]
  %.sroa.0.184 = phi i64 [ %.sroa.0.097, %.preheader ], [ %12, %3 ]
  %.sroa.36.182 = phi i64 [ %.sroa.36.095, %.preheader ], [ %45, %3 ]
  %.sroa.33.181 = phi i64 [ %.sroa.33.094, %.preheader ], [ %42, %3 ]
  %.sroa.30.180 = phi i64 [ %.sroa.30.093, %.preheader ], [ %39, %3 ]
  %.sroa.27.179 = phi i64 [ %.sroa.27.092, %.preheader ], [ %36, %3 ]
  %.sroa.24.178 = phi i64 [ %.sroa.24.091, %.preheader ], [ %33, %3 ]
  %.sroa.21.177 = phi i64 [ %.sroa.21.090, %.preheader ], [ %30, %3 ]
  %.sroa.18.176 = phi i64 [ %.sroa.18.089, %.preheader ], [ %27, %3 ]
  %.sroa.15.175 = phi i64 [ %.sroa.15.088, %.preheader ], [ %24, %3 ]
  %.sroa.12.174 = phi i64 [ %.sroa.12.087, %.preheader ], [ %21, %3 ]
  %.sroa.923.173 = phi i64 [ %.sroa.923.086, %.preheader ], [ %18, %3 ]
  %.sroa.621.172 = phi i64 [ %.sroa.621.085, %.preheader ], [ %15, %3 ]
  %4 = getelementptr inbounds nuw [4 x i32], ptr @lru_type_map, i64 0, i64 %indvars.iv
  %5 = load i32, ptr %4, align 4, !tbaa !22
  %6 = or i32 %5, %.07196
  %7 = sext i32 %6 to i64
  %8 = getelementptr inbounds [256 x %union.pthread_mutex_t], ptr @lru_locks, i64 0, i64 %7
  %9 = tail call i32 @pthread_mutex_lock(ptr noundef nonnull %8) #19
  %10 = getelementptr inbounds [256 x %struct.itemstats_t], ptr @itemstats, i64 0, i64 %7
  %11 = load i64, ptr %10, align 8, !tbaa !44
  %12 = add i64 %11, %.sroa.0.184
  %13 = getelementptr inbounds nuw i8, ptr %10, i64 16
  %14 = load i64, ptr %13, align 8, !tbaa !37
  %15 = add i64 %14, %.sroa.621.172
  %16 = getelementptr inbounds nuw i8, ptr %10, i64 40
  %17 = load i64, ptr %16, align 8, !tbaa !12
  %18 = add i64 %17, %.sroa.923.173
  %19 = getelementptr inbounds nuw i8, ptr %10, i64 48
  %20 = load i64, ptr %19, align 8, !tbaa !47
  %21 = add i64 %20, %.sroa.12.174
  %22 = getelementptr inbounds nuw i8, ptr %10, i64 56
  %23 = load i64, ptr %22, align 8, !tbaa !48
  %24 = add i64 %23, %.sroa.15.175
  %25 = getelementptr inbounds nuw i8, ptr %10, i64 64
  %26 = load i64, ptr %25, align 8, !tbaa !6
  %27 = add i64 %26, %.sroa.18.176
  %28 = getelementptr inbounds nuw i8, ptr %10, i64 72
  %29 = load i64, ptr %28, align 8, !tbaa !13
  %30 = add i64 %29, %.sroa.21.177
  %31 = getelementptr inbounds nuw i8, ptr %10, i64 80
  %32 = load i64, ptr %31, align 8, !tbaa !34
  %33 = add i64 %32, %.sroa.24.178
  %34 = getelementptr inbounds nuw i8, ptr %10, i64 88
  %35 = load i64, ptr %34, align 8, !tbaa !42
  %36 = add i64 %35, %.sroa.27.179
  %37 = getelementptr inbounds nuw i8, ptr %10, i64 96
  %38 = load i64, ptr %37, align 8, !tbaa !41
  %39 = add i64 %38, %.sroa.30.180
  %40 = getelementptr inbounds nuw i8, ptr %10, i64 104
  %41 = load i64, ptr %40, align 8, !tbaa !40
  %42 = add i64 %41, %.sroa.33.181
  %43 = getelementptr inbounds nuw i8, ptr %10, i64 112
  %44 = load i64, ptr %43, align 8, !tbaa !27
  %45 = add i64 %44, %.sroa.36.182
  %46 = tail call i32 @pthread_mutex_unlock(ptr noundef nonnull %8) #19
  %indvars.iv.next = add nuw nsw i64 %indvars.iv, 1
  %exitcond.not = icmp eq i64 %indvars.iv.next, 4
  br i1 %exitcond.not, label %47, label %3, !llvm.loop !82

47:                                               ; preds = %3
  %48 = add nuw nsw i32 %.07196, 1
  %exitcond111.not = icmp eq i32 %48, 64
  br i1 %exitcond111.not, label %49, label %.preheader, !llvm.loop !83

49:                                               ; preds = %47
  tail call void (ptr, ptr, ptr, ptr, ...) @append_stat(ptr noundef nonnull @.str.2, ptr noundef %0, ptr noundef %1, ptr noundef nonnull @.str.3, i64 noundef %18) #19
  tail call void (ptr, ptr, ptr, ptr, ...) @append_stat(ptr noundef nonnull @.str.4, ptr noundef %0, ptr noundef %1, ptr noundef nonnull @.str.3, i64 noundef %21) #19
  %50 = load i8, ptr getelementptr inbounds nuw (i8, ptr @settings, i64 135), align 1, !tbaa !84, !range !24, !noundef !25
  %51 = trunc nuw i8 %50 to i1
  br i1 %51, label %52, label %53

52:                                               ; preds = %49
  tail call void (ptr, ptr, ptr, ptr, ...) @append_stat(ptr noundef nonnull @.str.5, ptr noundef %0, ptr noundef %1, ptr noundef nonnull @.str.3, i64 noundef %24) #19
  br label %53

53:                                               ; preds = %52, %49
  tail call void (ptr, ptr, ptr, ptr, ...) @append_stat(ptr noundef nonnull @.str.6, ptr noundef %0, ptr noundef %1, ptr noundef nonnull @.str.3, i64 noundef %12) #19
  tail call void (ptr, ptr, ptr, ptr, ...) @append_stat(ptr noundef nonnull @.str.7, ptr noundef %0, ptr noundef %1, ptr noundef nonnull @.str.3, i64 noundef %15) #19
  tail call void (ptr, ptr, ptr, ptr, ...) @append_stat(ptr noundef nonnull @.str.8, ptr noundef %0, ptr noundef %1, ptr noundef nonnull @.str.3, i64 noundef %27) #19
  tail call void (ptr, ptr, ptr, ptr, ...) @append_stat(ptr noundef nonnull @.str.9, ptr noundef %0, ptr noundef %1, ptr noundef nonnull @.str.3, i64 noundef %30) #19
  tail call void (ptr, ptr, ptr, ptr, ...) @append_stat(ptr noundef nonnull @.str.10, ptr noundef %0, ptr noundef %1, ptr noundef nonnull @.str.3, i64 noundef %33) #19
  %54 = load i8, ptr getelementptr inbounds nuw (i8, ptr @settings, i64 135), align 1, !tbaa !84, !range !24, !noundef !25
  %55 = trunc nuw i8 %54 to i1
  br i1 %55, label %56, label %66

56:                                               ; preds = %53
  tail call void (ptr, ptr, ptr, ptr, ...) @append_stat(ptr noundef nonnull @.str.11, ptr noundef %0, ptr noundef %1, ptr noundef nonnull @.str.3, i64 noundef %36) #19
  tail call void (ptr, ptr, ptr, ptr, ...) @append_stat(ptr noundef nonnull @.str.12, ptr noundef %0, ptr noundef %1, ptr noundef nonnull @.str.3, i64 noundef %39) #19
  tail call void (ptr, ptr, ptr, ptr, ...) @append_stat(ptr noundef nonnull @.str.13, ptr noundef %0, ptr noundef %1, ptr noundef nonnull @.str.3, i64 noundef %42) #19
  tail call void (ptr, ptr, ptr, ptr, ...) @append_stat(ptr noundef nonnull @.str.14, ptr noundef %0, ptr noundef %1, ptr noundef nonnull @.str.3, i64 noundef %45) #19
  %57 = tail call i32 @pthread_mutex_lock(ptr noundef nonnull @bump_buf_lock) #19
  %.07.i = load ptr, ptr @bump_buf_head, align 8, !tbaa !85
  %.not8.i = icmp eq ptr %.07.i, null
  br i1 %.not8.i, label %lru_total_bumps_dropped.exit, label %.lr.ph.i

.lr.ph.i:                                         ; preds = %56, %.lr.ph.i
  %.010.i = phi ptr [ %.0.i, %.lr.ph.i ], [ %.07.i, %56 ]
  %.069.i = phi i64 [ %62, %.lr.ph.i ], [ 0, %56 ]
  %58 = getelementptr inbounds nuw i8, ptr %.010.i, i64 16
  %59 = tail call i32 @pthread_mutex_lock(ptr noundef nonnull %58) #19
  %60 = getelementptr inbounds nuw i8, ptr %.010.i, i64 64
  %61 = load i64, ptr %60, align 8, !tbaa !87
  %62 = add i64 %61, %.069.i
  %63 = tail call i32 @pthread_mutex_unlock(ptr noundef nonnull %58) #19
  %64 = getelementptr inbounds nuw i8, ptr %.010.i, i64 8
  %.0.i = load ptr, ptr %64, align 8, !tbaa !85
  %.not.i = icmp eq ptr %.0.i, null
  br i1 %.not.i, label %lru_total_bumps_dropped.exit, label %.lr.ph.i, !llvm.loop !89

lru_total_bumps_dropped.exit:                     ; preds = %.lr.ph.i, %56
  %.06.lcssa.i = phi i64 [ 0, %56 ], [ %62, %.lr.ph.i ]
  %65 = tail call i32 @pthread_mutex_unlock(ptr noundef nonnull @bump_buf_lock) #19
  tail call void (ptr, ptr, ptr, ptr, ...) @append_stat(ptr noundef nonnull @.str.15, ptr noundef %0, ptr noundef %1, ptr noundef nonnull @.str.3, i64 noundef %.06.lcssa.i) #19
  br label %66

66:                                               ; preds = %lru_total_bumps_dropped.exit, %53
  ret void
}